; Function Attrs: inlinehint nounwind uwtable
define internal fastcc ptr @lean_array_pop(ptr noundef %0) unnamed_addr #0 {
  %.val.i = load i32, ptr %0, align 4, !tbaa !4
  %2 = icmp eq i32 %.val.i, 1
  br i1 %2, label %lean_ensure_exclusive_array.exit, label %3

3:                                                ; preds = %1
  %4 = tail call ptr @lean_copy_expand_array(ptr noundef nonnull %0, i1 noundef zeroext false) #4
  br label %lean_ensure_exclusive_array.exit

lean_ensure_exclusive_array.exit:                 ; preds = %1, %3
  %.0.i = phi ptr [ %4, %3 ], [ %0, %1 ]
  %5 = getelementptr inbounds nuw i8, ptr %.0.i, i64 8
  %6 = load i64, ptr %5, align 8, !tbaa !9
  %7 = icmp eq i64 %6, 0
  br i1 %7, label %lean_dec.exit, label %8

8:                                                ; preds = %lean_ensure_exclusive_array.exit
  %9 = add i64 %6, -1
  %10 = getelementptr inbounds nuw i8, ptr %.0.i, i64 24
  %11 = getelementptr inbounds nuw ptr, ptr %10, i64 %9
  store i64 %9, ptr %5, align 8, !tbaa !9
  %12 = load ptr, ptr %11, align 8, !tbaa !11
  %13 = ptrtoint ptr %12 to i64
  %14 = and i64 %13, 1
  %.not = icmp eq i64 %14, 0
  br i1 %.not, label %15, label %lean_dec.exit

15:                                               ; preds = %8
  %16 = load i32, ptr %12, align 4, !tbaa !4
  %17 = icmp sgt i32 %16, 1
  br i1 %17, label %18, label %20, !prof !13

18:                                               ; preds = %15
  %19 = add nsw i32 %16, -1
  store i32 %19, ptr %12, align 4, !tbaa !4
  br label %lean_dec.exit

20:                                               ; preds = %15
  %.not.i = icmp eq i32 %16, 0
  br i1 %.not.i, label %lean_dec.exit, label %21

21:                                               ; preds = %20
  tail call void @lean_dec_ref_cold(ptr noundef nonnull %12) #4
  br label %lean_dec.exit

lean_dec.exit:                                    ; preds = %8, %18, %20, %21, %lean_ensure_exclusive_array.exit
  ret ptr %.0.i
}